; ModuleID = 'source-C-CXX/33/3510.cpp'
source_filename = "source-C-CXX/33/3510.cpp"
target datalayout = "e-m:e-p270:32:32-p271:32:32-p272:64:64-i64:64-f80:128-n8:16:32:64-S128"
target triple = "x86_64-pc-linux-gnu"

%"class.std::ios_base::Init" = type { i8 }
%"class.std::basic_istream" = type { i32 (...)**, i64, %"class.std::basic_ios" }
%"class.std::basic_ios" = type { %"class.std::ios_base", %"class.std::basic_ostream"*, i8, i8, %"class.std::basic_streambuf"*, %"class.std::ctype"*, %"class.std::num_put"*, %"class.std::num_get"* }
%"class.std::ios_base" = type { i32 (...)**, i64, i64, i32, i32, i32, %"struct.std::ios_base::_Callback_list"*, %"struct.std::ios_base::_Words", [8 x %"struct.std::ios_base::_Words"], i32, %"struct.std::ios_base::_Words"*, %"class.std::locale" }
%"struct.std::ios_base::_Callback_list" = type { %"struct.std::ios_base::_Callback_list"*, void (i32, %"class.std::ios_base"*, i32)*, i32, i32 }
%"struct.std::ios_base::_Words" = type { i8*, i64 }
%"class.std::locale" = type { %"class.std::locale::_Impl"* }
%"class.std::locale::_Impl" = type { i32, %"class.std::locale::facet"**, i64, %"class.std::locale::facet"**, i8** }
%"class.std::locale::facet" = type <{ i32 (...)**, i32, [4 x i8] }>
%"class.std::basic_ostream" = type { i32 (...)**, %"class.std::basic_ios" }
%"class.std::basic_streambuf" = type { i32 (...)**, i8*, i8*, i8*, i8*, i8*, i8*, %"class.std::locale" }
%"class.std::ctype" = type <{ %"class.std::locale::facet.base", [4 x i8], %struct.__locale_struct*, i8, [7 x i8], i32*, i32*, i16*, i8, [256 x i8], [256 x i8], i8, [6 x i8] }>
%"class.std::locale::facet.base" = type <{ i32 (...)**, i32 }>
%struct.__locale_struct = type { [13 x %struct.__locale_data*], i16*, i32*, i32*, [13 x i8*] }
%struct.__locale_data = type opaque
%"class.std::num_put" = type { %"class.std::locale::facet.base", [4 x i8] }
%"class.std::num_get" = type { %"class.std::locale::facet.base", [4 x i8] }

@_ZStL8__ioinit = internal global %"class.std::ios_base::Init" zeroinitializer, align 1
@__dso_handle = external hidden global i8
@_ZSt3cin = external global %"class.std::basic_istream", align 8
@_ZSt4cout = external global %"class.std::basic_ostream", align 8
@.str = private unnamed_addr constant [5 x i8] c"End\0A\00", align 1
@.str.1 = private unnamed_addr constant [4 x i8] c"/2=\00", align 1
@.str.2 = private unnamed_addr constant [6 x i8] c"*3+1=\00", align 1
@llvm.global_ctors = appending global [1 x { i32, void ()*, i8* }] [{ i32, void ()*, i8* } { i32 65535, void ()* @_GLOBAL__sub_I_3510.cpp, i8* null }]

declare void @_ZNSt8ios_base4InitC1Ev(%"class.std::ios_base::Init"* nonnull align 1 dereferenceable(1)) unnamed_addr #0

; Function Attrs: nounwind
declare void @_ZNSt8ios_base4InitD1Ev(%"class.std::ios_base::Init"* nonnull align 1 dereferenceable(1)) unnamed_addr #1

; Function Attrs: nofree nounwind
declare i32 @__cxa_atexit(void (i8*)*, i8*, i8*) local_unnamed_addr #2

; Function Attrs: mustprogress norecurse sspstrong uwtable
define dso_local i32 @main() local_unnamed_addr #3 {
  %1 = alloca i32, align 4
  %2 = bitcast i32* %1 to i8*
  call void @llvm.lifetime.start.p0i8(i64 4, i8* nonnull %2) #8
  %3 = call nonnull align 8 dereferenceable(16) %"class.std::basic_istream"* @_ZNSirsERi(%"class.std::basic_istream"* nonnull align 8 dereferenceable(16) @_ZSt3cin, i32* nonnull align 4 dereferenceable(4) %1)
  %4 = load i32, i32* %1, align 4, !tbaa !5
  %5 = icmp eq i32 %4, 1
  br i1 %5, label %10, label %6

6:                                                ; preds = %0, %6
  %7 = phi i32 [ %8, %6 ], [ %4, %0 ]
  %8 = call i32 @_Z3numi(i32 %7)
  store i32 %8, i32* %1, align 4, !tbaa !5
  %9 = icmp eq i32 %8, 1
  br i1 %9, label %10, label %6, !llvm.loop !9

10:                                               ; preds = %6, %0
  %11 = call nonnull align 8 dereferenceable(8) %"class.std::basic_ostream"* @_ZSt16__ostream_insertIcSt11char_traitsIcEERSt13basic_ostreamIT_T0_ES6_PKS3_l(%"class.std::basic_ostream"* nonnull align 8 dereferenceable(8) @_ZSt4cout, i8* nonnull getelementptr inbounds ([5 x i8], [5 x i8]* @.str, i64 0, i64 0), i64 4)
  call void @llvm.lifetime.end.p0i8(i64 4, i8* nonnull %2) #8
  ret i32 0
}

; Function Attrs: argmemonly mustprogress nofree nosync nounwind willreturn
declare void @llvm.lifetime.start.p0i8(i64 immarg, i8* nocapture) #4

declare nonnull align 8 dereferenceable(16) %"class.std::basic_istream"* @_ZNSirsERi(%"class.std::basic_istream"* nonnull align 8 dereferenceable(16), i32* nonnull align 4 dereferenceable(4)) local_unnamed_addr #0

; Function Attrs: mustprogress sspstrong uwtable
define dso_local i32 @_Z3numi(i32 %0) local_unnamed_addr #5 {
  %2 = and i32 %0, 1
  %3 = icmp eq i32 %2, 0
  %4 = tail call nonnull align 8 dereferenceable(8) %"class.std::basic_ostream"* @_ZNSolsEi(%"class.std::basic_ostream"* nonnull align 8 dereferenceable(8) @_ZSt4cout, i32 %0)
  br i1 %3, label %5, label %37

5:                                                ; preds = %1
  %6 = tail call nonnull align 8 dereferenceable(8) %"class.std::basic_ostream"* @_ZSt16__ostream_insertIcSt11char_traitsIcEERSt13basic_ostreamIT_T0_ES6_PKS3_l(%"class.std::basic_ostream"* nonnull align 8 dereferenceable(8) %4, i8* nonnull getelementptr inbounds ([4 x i8], [4 x i8]* @.str.1, i64 0, i64 0), i64 3)
  %7 = sdiv i32 %0, 2
  %8 = tail call nonnull align 8 dereferenceable(8) %"class.std::basic_ostream"* @_ZNSolsEi(%"class.std::basic_ostream"* nonnull align 8 dereferenceable(8) %4, i32 %7)
  %9 = bitcast %"class.std::basic_ostream"* %8 to i8**
  %10 = load i8*, i8** %9, align 8, !tbaa !11
  %11 = getelementptr i8, i8* %10, i64 -24
  %12 = bitcast i8* %11 to i64*
  %13 = load i64, i64* %12, align 8
  %14 = bitcast %"class.std::basic_ostream"* %8 to i8*
  %15 = add nsw i64 %13, 240
  %16 = getelementptr inbounds i8, i8* %14, i64 %15
  %17 = bitcast i8* %16 to %"class.std::ctype"**
  %18 = load %"class.std::ctype"*, %"class.std::ctype"** %17, align 8, !tbaa !13
  %19 = icmp eq %"class.std::ctype"* %18, null
  br i1 %19, label %20, label %21

20:                                               ; preds = %5
  tail call void @_ZSt16__throw_bad_castv() #9
  unreachable

21:                                               ; preds = %5
  %22 = getelementptr inbounds %"class.std::ctype", %"class.std::ctype"* %18, i64 0, i32 8
  %23 = load i8, i8* %22, align 8, !tbaa !17
  %24 = icmp eq i8 %23, 0
  br i1 %24, label %28, label %25

25:                                               ; preds = %21
  %26 = getelementptr inbounds %"class.std::ctype", %"class.std::ctype"* %18, i64 0, i32 9, i64 10
  %27 = load i8, i8* %26, align 1, !tbaa !19
  br label %34

28:                                               ; preds = %21
  tail call void @_ZNKSt5ctypeIcE13_M_widen_initEv(%"class.std::ctype"* nonnull align 8 dereferenceable(570) %18)
  %29 = bitcast %"class.std::ctype"* %18 to i8 (%"class.std::ctype"*, i8)***
  %30 = load i8 (%"class.std::ctype"*, i8)**, i8 (%"class.std::ctype"*, i8)*** %29, align 8, !tbaa !11
  %31 = getelementptr inbounds i8 (%"class.std::ctype"*, i8)*, i8 (%"class.std::ctype"*, i8)** %30, i64 6
  %32 = load i8 (%"class.std::ctype"*, i8)*, i8 (%"class.std::ctype"*, i8)** %31, align 8
  %33 = tail call signext i8 %32(%"class.std::ctype"* nonnull align 8 dereferenceable(570) %18, i8 signext 10)
  br label %34

34:                                               ; preds = %25, %28
  %35 = phi i8 [ %27, %25 ], [ %33, %28 ]
  %36 = tail call nonnull align 8 dereferenceable(8) %"class.std::basic_ostream"* @_ZNSo3putEc(%"class.std::basic_ostream"* nonnull align 8 dereferenceable(8) %8, i8 signext %35)
  br label %70

37:                                               ; preds = %1
  %38 = tail call nonnull align 8 dereferenceable(8) %"class.std::basic_ostream"* @_ZSt16__ostream_insertIcSt11char_traitsIcEERSt13basic_ostreamIT_T0_ES6_PKS3_l(%"class.std::basic_ostream"* nonnull align 8 dereferenceable(8) %4, i8* nonnull getelementptr inbounds ([6 x i8], [6 x i8]* @.str.2, i64 0, i64 0), i64 5)
  %39 = mul nsw i32 %0, 3
  %40 = add nsw i32 %39, 1
  %41 = tail call nonnull align 8 dereferenceable(8) %"class.std::basic_ostream"* @_ZNSolsEi(%"class.std::basic_ostream"* nonnull align 8 dereferenceable(8) %4, i32 %40)
  %42 = bitcast %"class.std::basic_ostream"* %41 to i8**
  %43 = load i8*, i8** %42, align 8, !tbaa !11
  %44 = getelementptr i8, i8* %43, i64 -24
  %45 = bitcast i8* %44 to i64*
  %46 = load i64, i64* %45, align 8
  %47 = bitcast %"class.std::basic_ostream"* %41 to i8*
  %48 = add nsw i64 %46, 240
  %49 = getelementptr inbounds i8, i8* %47, i64 %48
  %50 = bitcast i8* %49 to %"class.std::ctype"**
  %51 = load %"class.std::ctype"*, %"class.std::ctype"** %50, align 8, !tbaa !13
  %52 = icmp eq %"class.std::ctype"* %51, null
  br i1 %52, label %53, label %54

53:                                               ; preds = %37
  tail call void @_ZSt16__throw_bad_castv() #9
  unreachable

54:                                               ; preds = %37
  %55 = getelementptr inbounds %"class.std::ctype", %"class.std::ctype"* %51, i64 0, i32 8
  %56 = load i8, i8* %55, align 8, !tbaa !17
  %57 = icmp eq i8 %56, 0
  br i1 %57, label %61, label %58

58:                                               ; preds = %54
  %59 = getelementptr inbounds %"class.std::ctype", %"class.std::ctype"* %51, i64 0, i32 9, i64 10
  %60 = load i8, i8* %59, align 1, !tbaa !19
  br label %67

61:                                               ; preds = %54
  tail call void @_ZNKSt5ctypeIcE13_M_widen_initEv(%"class.std::ctype"* nonnull align 8 dereferenceable(570) %51)
  %62 = bitcast %"class.std::ctype"* %51 to i8 (%"class.std::ctype"*, i8)***
  %63 = load i8 (%"class.std::ctype"*, i8)**, i8 (%"class.std::ctype"*, i8)*** %62, align 8, !tbaa !11
  %64 = getelementptr inbounds i8 (%"class.std::ctype"*, i8)*, i8 (%"class.std::ctype"*, i8)** %63, i64 6
  %65 = load i8 (%"class.std::ctype"*, i8)*, i8 (%"class.std::ctype"*, i8)** %64, align 8
  %66 = tail call signext i8 %65(%"class.std::ctype"* nonnull align 8 dereferenceable(570) %51, i8 signext 10)
  br label %67

67:                                               ; preds = %58, %61
  %68 = phi i8 [ %60, %58 ], [ %66, %61 ]
  %69 = tail call nonnull align 8 dereferenceable(8) %"class.std::basic_ostream"* @_ZNSo3putEc(%"class.std::basic_ostream"* nonnull align 8 dereferenceable(8) %41, i8 signext %68)
  br label %70

70:                                               ; preds = %67, %34
  %71 = phi %"class.std::basic_ostream"* [ %69, %67 ], [ %36, %34 ]
  %72 = phi i32 [ %40, %67 ], [ %7, %34 ]
  %73 = tail call nonnull align 8 dereferenceable(8) %"class.std::basic_ostream"* @_ZNSo5flushEv(%"class.std::basic_ostream"* nonnull align 8 dereferenceable(8) %71)
  ret i32 %72
}

; Function Attrs: argmemonly mustprogress nofree nosync nounwind willreturn
declare void @llvm.lifetime.end.p0i8(i64 immarg, i8* nocapture) #4

declare nonnull align 8 dereferenceable(8) %"class.std::basic_ostream"* @_ZNSolsEi(%"class.std::basic_ostream"* nonnull align 8 dereferenceable(8), i32) local_unnamed_addr #0

declare nonnull align 8 dereferenceable(8) %"class.std::basic_ostream"* @_ZSt16__ostream_insertIcSt11char_traitsIcEERSt13basic_ostreamIT_T0_ES6_PKS3_l(%"class.std::basic_ostream"* nonnull align 8 dereferenceable(8), i8*, i64) local_unnamed_addr #0

declare nonnull align 8 dereferenceable(8) %"class.std::basic_ostream"* @_ZNSo3putEc(%"class.std::basic_ostream"* nonnull align 8 dereferenceable(8), i8 signext) local_unnamed_addr #0

declare nonnull align 8 dereferenceable(8) %"class.std::basic_ostream"* @_ZNSo5flushEv(%"class.std::basic_ostream"* nonnull align 8 dereferenceable(8)) local_unnamed_addr #0

; Function Attrs: noreturn
declare void @_ZSt16__throw_bad_castv() local_unnamed_addr #6

declare void @_ZNKSt5ctypeIcE13_M_widen_initEv(%"class.std::ctype"* nonnull align 8 dereferenceable(570)) local_unnamed_addr #0

; Function Attrs: sspstrong uwtable
define internal void @_GLOBAL__sub_I_3510.cpp() #7 section ".text.startup" {
  tail call void @_ZNSt8ios_base4InitC1Ev(%"class.std::ios_base::Init"* nonnull align 1 dereferenceable(1) @_ZStL8__ioinit)
  %1 = tail call i32 @__cxa_atexit(void (i8*)* bitcast (void (%"class.std::ios_base::Init"*)* @_ZNSt8ios_base4InitD1Ev to void (i8*)*), i8* getelementptr inbounds (%"class.std::ios_base::Init", %"class.std::ios_base::Init"* @_ZStL8__ioinit, i64 0, i32 0), i8* nonnull @__dso_handle) #8
  ret void
}


!llvm.module.flags = !{!0, !1, !2, !3}
!llvm.ident = !{!4}

!0 = !{i32 1, !"wchar_size", i32 4}
!1 = !{i32 7, !"PIC Level", i32 2}
!2 = !{i32 7, !"PIE Level", i32 2}
!3 = !{i32 7, !"uwtable", i32 1}
!4 = !{!"clang version 13.0.0"}
!5 = !{!6, !6, i64 0}
!6 = !{!"int", !7, i64 0}
!7 = !{!"omnipotent char", !8, i64 0}
!8 = !{!"Simple C++ TBAA"}
!9 = distinct !{!9, !10}
!10 = !{!"llvm.loop.mustprogress"}
!11 = !{!12, !12, i64 0}
!12 = !{!"vtable pointer", !8, i64 0}
!13 = !{!14, !15, i64 240}
!14 = !{!"_ZTSSt9basic_iosIcSt11char_traitsIcEE", !15, i64 216, !7, i64 224, !16, i64 225, !15, i64 232, !15, i64 240, !15, i64 248, !15, i64 256}
!15 = !{!"any pointer", !7, i64 0}
!16 = !{!"bool", !7, i64 0}
!17 = !{!18, !7, i64 56}
!18 = !{!"_ZTSSt5ctypeIcE", !15, i64 16, !16, i64 24, !15, i64 32, !15, i64 40, !15, i64 48, !7, i64 56, !7, i64 57, !7, i64 313, !7, i64 569}
!19 = !{!7, !7, i64 0}
